target datalayout = "e-m:e-p270:32:32-p271:32:32-p272:64:64-i64:64-i128:128-f80:128-n8:16:32:64-S128"
target triple = "x86_64-pc-linux-gnu"

%struct.cbs_st = type { ptr, i64 }

; Function Attrs: nounwind uwtable
define internal i32 @cbs_get(ptr noundef %0, ptr noundef %1, i64 noundef %2) #0 {
  %4 = alloca i32, align 4
  %5 = alloca ptr, align 8
  %6 = alloca ptr, align 8
  %7 = alloca i64, align 8
  store ptr %0, ptr %5, align 8, !tbaa !6
  store ptr %1, ptr %6, align 8, !tbaa !18
  store i64 %2, ptr %7, align 8, !tbaa !13
  %8 = load ptr, ptr %5, align 8, !tbaa !6
  %9 = getelementptr inbounds nuw %struct.cbs_st, ptr %8, i32 0, i32 1
  %10 = load i64, ptr %9, align 8, !tbaa !17
  %11 = load i64, ptr %7, align 8, !tbaa !13
  %12 = icmp ult i64 %10, %11
  br i1 %12, label %13, label %14

13:                                               ; preds = %3
  store i32 0, ptr %4, align 4
  br label %29

14:                                               ; preds = %3
  %15 = load ptr, ptr %5, align 8, !tbaa !6
  %16 = getelementptr inbounds nuw %struct.cbs_st, ptr %15, i32 0, i32 0
  %17 = load ptr, ptr %16, align 8, !tbaa !15
  %18 = load ptr, ptr %6, align 8, !tbaa !18
  store ptr %17, ptr %18, align 8, !tbaa !11
  %19 = load i64, ptr %7, align 8, !tbaa !13
  %20 = load ptr, ptr %5, align 8, !tbaa !6
  %21 = getelementptr inbounds nuw %struct.cbs_st, ptr %20, i32 0, i32 0
  %22 = load ptr, ptr %21, align 8, !tbaa !15
  %23 = getelementptr inbounds nuw i8, ptr %22, i64 %19
  store ptr %23, ptr %21, align 8, !tbaa !15
  %24 = load i64, ptr %7, align 8, !tbaa !13
  %25 = load ptr, ptr %5, align 8, !tbaa !6
  %26 = getelementptr inbounds nuw %struct.cbs_st, ptr %25, i32 0, i32 1
  %27 = load i64, ptr %26, align 8, !tbaa !17
  %28 = sub i64 %27, %24
  store i64 %28, ptr %26, align 8, !tbaa !17
  store i32 1, ptr %4, align 4
  br label %29

29:                                               ; preds = %14, %13
  %30 = load i32, ptr %4, align 4
  ret i32 %30
}

; Function Attrs: nounwind uwtable
define hidden i32 @CBS_copy_bytes(ptr noundef %0, ptr noundef %1, i64 noundef %2) #0 {
  %4 = alloca i32, align 4
  %5 = alloca ptr, align 8
  %6 = alloca ptr, align 8
  %7 = alloca i64, align 8
  %8 = alloca ptr, align 8
  %9 = alloca i32, align 4
  store ptr %0, ptr %5, align 8, !tbaa !6
  store ptr %1, ptr %6, align 8, !tbaa !11
  store i64 %2, ptr %7, align 8, !tbaa !13
  call void @llvm.lifetime.start.p0(i64 8, ptr %8) #6
  %10 = load ptr, ptr %5, align 8, !tbaa !6
  %11 = load i64, ptr %7, align 8, !tbaa !13
  %12 = call i32 @cbs_get(ptr noundef %10, ptr noundef %8, i64 noundef %11)
  %13 = icmp ne i32 %12, 0
  br i1 %13, label %15, label %14

14:                                               ; preds = %3
  store i32 0, ptr %4, align 4
  store i32 1, ptr %9, align 4
  br label %19

15:                                               ; preds = %3
  %16 = load ptr, ptr %6, align 8, !tbaa !11
  %17 = load ptr, ptr %8, align 8, !tbaa !11
  %18 = load i64, ptr %7, align 8, !tbaa !13
  call void @llvm.memcpy.p0.p0.i64(ptr align 1 %16, ptr align 1 %17, i64 %18, i1 false)
  store i32 1, ptr %4, align 4
  store i32 1, ptr %9, align 4
  br label %19

19:                                               ; preds = %15, %14
  call void @llvm.lifetime.end.p0(i64 8, ptr %8) #6
  %20 = load i32, ptr %4, align 4
  ret i32 %20
}